
main.elf:     file format elf32-littleriscv


Disassembly of section .text:

00000000 <_start>:
   0:	00001137          	lui	sp,0x1
   4:	00c000ef          	jal	ra,10 <main>
   8:	00100073          	ebreak
   c:	0000006f          	j	c <_start+0xc>

00000010 <main>:
//     }
//     delayCPT=0;
// }

void main(void)
{
  10:	ff010113          	addi	sp,sp,-16 # ff0 <main+0xfe0>
    uint32_t *ADDMax = (uint32_t*)addrMax;
    uint8_t *addrSRAMB = (uint8_t*)0x00000000;
    uint8_t *ADDMaxB = (uint8_t*)addrMax;
    uint32_t Lentmp;
    uint32_t Len = 0x00000000;
    volatile uint32_t receptUart = 0;
  14:	00012623          	sw	zero,12(sp)
    volatile uint32_t bufferWord = 0;
  18:	00012423          	sw	zero,8(sp)
    volatile uint32_t bufferByte = 0; 
  1c:	00012223          	sw	zero,4(sp)
    volatile uint32_t *Tx = (uint32_t*)0xC0000004;

    volatile int *AD_DISPLAY1 = (int *)0x80000004;
    volatile int *AD_DISPLAY2 = (int *)0x80000008;
    int tmp;
    *AD_DISPLAY2=0xff83;     //BO
  20:	80000737          	lui	a4,0x80000
  24:	000107b7          	lui	a5,0x10
  28:	f8378793          	addi	a5,a5,-125 # ff83 <main+0xff73>
  2c:	00f72423          	sw	a5,8(a4) # 80000008 <main+0x7ffffff8>
    *AD_DISPLAY1=0xc0c087ff; //OT
  30:	c0c087b7          	lui	a5,0xc0c08
  34:	7ff78793          	addi	a5,a5,2047 # c0c087ff <main+0xc0c087ef>
  38:	00f72223          	sw	a5,4(a4)
  3c:	01800693          	li	a3,24
    uint32_t Len = 0x00000000;
  40:	00000513          	li	a0,0
    //     while ((*UART_Status & Tx_busy) == 1);
    //     *Tx=Lentmp;
    //     // Len |= Lentmp<<i*8;
    // }
    for(int i = 3; i >= 0; i--){
        while ((*UART_Status & Rx_full) == 0);
  44:	c0000737          	lui	a4,0xc0000
    for(int i = 3; i >= 0; i--){
  48:	ff800593          	li	a1,-8
        while ((*UART_Status & Rx_full) == 0);
  4c:	00072783          	lw	a5,0(a4) # c0000000 <main+0xbffffff0>
  50:	0047f793          	andi	a5,a5,4
  54:	fe078ce3          	beqz	a5,4c <main+0x3c>
        Lentmp = *Rx;
  58:	00472603          	lw	a2,4(a4)
        while ((*UART_Status & Tx_busy) == 1);
  5c:	00072783          	lw	a5,0(a4)
  60:	0017f793          	andi	a5,a5,1
  64:	fe079ce3          	bnez	a5,5c <main+0x4c>
        *Tx=Lentmp;
  68:	00c72223          	sw	a2,4(a4)
        Len |= Lentmp<<i*8;
  6c:	00d61633          	sll	a2,a2,a3
  70:	00c56533          	or	a0,a0,a2
    for(int i = 3; i >= 0; i--){
  74:	ff868693          	addi	a3,a3,-8
  78:	fcb69ae3          	bne	a3,a1,4c <main+0x3c>

    }

    // Len = 20;
    while (Len > 0 && ADDMax >= addrSRAM){
  7c:	0e050463          	beqz	a0,164 <main+0x154>
  80:	ffffe337          	lui	t1,0xffffe
  84:	ffc30313          	addi	t1,t1,-4 # ffffdffc <main+0xffffdfec>
  88:	00650333          	add	t1,a0,t1
        Len |= Lentmp<<i*8;
  8c:	00050893          	mv	a7,a0
        bufferWord = 0;
        for(int i = 3; i >= 0; i--){
            while (((*UART_Status & Rx_full) == 0) && ((*UART_Status & Rx_error) == 0));
  90:	c00007b7          	lui	a5,0xc0000
                //     *AD_DISPLAY1=0x86;
                //     while(1);
                // }
            }    
            receptUart=*Rx;
            *AD_DISPLAY1=(receptUart<<(16));
  94:	80000637          	lui	a2,0x80000
        for(int i = 3; i >= 0; i--){
  98:	ff800593          	li	a1,-8
  9c:	0b80006f          	j	154 <main+0x144>
                tmp=*UART_Status;
  a0:	0007a703          	lw	a4,0(a5) # c0000000 <main+0xbffffff0>
                if((tmp & Rx_full) != 0) break;
  a4:	00477713          	andi	a4,a4,4
  a8:	fe070ce3          	beqz	a4,a0 <main+0x90>
            receptUart=*Rx;
  ac:	0047a703          	lw	a4,4(a5)
  b0:	00e12623          	sw	a4,12(sp)
            *AD_DISPLAY1=(receptUart<<(16));
  b4:	00c12703          	lw	a4,12(sp)
  b8:	01071713          	slli	a4,a4,0x10
  bc:	00e62223          	sw	a4,4(a2) # 80000004 <main+0x7ffffff4>
            bufferWord |= (receptUart<<(i*8));
  c0:	00c12703          	lw	a4,12(sp)
  c4:	00812803          	lw	a6,8(sp)
  c8:	00d71733          	sll	a4,a4,a3
  cc:	01076733          	or	a4,a4,a6
  d0:	00e12423          	sw	a4,8(sp)
        for(int i = 3; i >= 0; i--){
  d4:	ff868693          	addi	a3,a3,-8
  d8:	02b68063          	beq	a3,a1,f8 <main+0xe8>
            while (((*UART_Status & Rx_full) == 0) && ((*UART_Status & Rx_error) == 0));
  dc:	0007a703          	lw	a4,0(a5)
  e0:	00477713          	andi	a4,a4,4
  e4:	fa071ee3          	bnez	a4,a0 <main+0x90>
  e8:	0007a703          	lw	a4,0(a5)
  ec:	00277713          	andi	a4,a4,2
  f0:	fe0706e3          	beqz	a4,dc <main+0xcc>
  f4:	fadff06f          	j	a0 <main+0x90>
            // while ((*UART_Status & Tx_busy) != 0);
            // while ((*UART_Status & Tx_busy) == 1);

            // *Tx = receptUart;
            // *Tx = 0x46;
            Len = Len - 1;
  f8:	ffc88893          	addi	a7,a7,-4
            // *AD_DISPLAY1 |= receptUart;
            // *AD_DISPLAY1 |= 0x46;
        }

        *addrSRAM=bufferWord;
  fc:	00812703          	lw	a4,8(sp)
 100:	00ee2023          	sw	a4,0(t3)
        bufferWord=0;
 104:	00012423          	sw	zero,8(sp)
        bufferWord=*addrSRAM;
 108:	00e12423          	sw	a4,8(sp)
 10c:	01800693          	li	a3,24
        for(int i = 3; i>=0; i--){
            bufferByte = (bufferWord>>(i*8)) & 0xff;
 110:	00812703          	lw	a4,8(sp)
 114:	00d75733          	srl	a4,a4,a3
 118:	0ff77713          	zext.b	a4,a4
 11c:	00e12223          	sw	a4,4(sp)
            while ((*UART_Status & Tx_busy) == 1);
 120:	0007a703          	lw	a4,0(a5)
 124:	00177713          	andi	a4,a4,1
 128:	fe071ce3          	bnez	a4,120 <main+0x110>
            *Tx = bufferByte;
 12c:	00412703          	lw	a4,4(sp)
 130:	00e7a223          	sw	a4,4(a5)
            *AD_DISPLAY1 |= bufferByte;
 134:	00412703          	lw	a4,4(sp)
 138:	00462803          	lw	a6,4(a2)
 13c:	01076733          	or	a4,a4,a6
 140:	00e62223          	sw	a4,4(a2)
        for(int i = 3; i>=0; i--){
 144:	ff868693          	addi	a3,a3,-8
 148:	fcb694e3          	bne	a3,a1,110 <main+0x100>
    while (Len > 0 && ADDMax >= addrSRAM){
 14c:	00088c63          	beqz	a7,164 <main+0x154>
 150:	01130a63          	beq	t1,a7,164 <main+0x154>
 154:	41150e33          	sub	t3,a0,a7
        bufferWord = 0;
 158:	00012423          	sw	zero,8(sp)
 15c:	01800693          	li	a3,24
 160:	f7dff06f          	j	dc <main+0xcc>
        bufferWord=*addrSRAM;
 164:	00000813          	li	a6,0
    while (ADDMax > addrSRAM){
        bufferWord=0;
        bufferWord=*addrSRAM;
        for(int i = 3; i>=0; i--){
            bufferByte = (bufferWord>>(i*8)) & 0xff;
            while ((*UART_Status & Tx_busy) == 1);
 168:	c0000737          	lui	a4,0xc0000
            *Tx = bufferByte;
            *AD_DISPLAY1 |= bufferByte;
 16c:	80000637          	lui	a2,0x80000
        for(int i = 3; i>=0; i--){
 170:	ff800513          	li	a0,-8
    while (ADDMax > addrSRAM){
 174:	000028b7          	lui	a7,0x2
 178:	00c0006f          	j	184 <main+0x174>
        }

        addrSRAM = addrSRAM + 1;
 17c:	00480813          	addi	a6,a6,4
    while (ADDMax > addrSRAM){
 180:	05180a63          	beq	a6,a7,1d4 <main+0x1c4>
        bufferWord=0;
 184:	00012423          	sw	zero,8(sp)
        bufferWord=*addrSRAM;
 188:	00082783          	lw	a5,0(a6)
 18c:	00f12423          	sw	a5,8(sp)
 190:	01800693          	li	a3,24
            bufferByte = (bufferWord>>(i*8)) & 0xff;
 194:	00812783          	lw	a5,8(sp)
 198:	00d7d7b3          	srl	a5,a5,a3
 19c:	0ff7f793          	zext.b	a5,a5
 1a0:	00f12223          	sw	a5,4(sp)
            while ((*UART_Status & Tx_busy) == 1);
 1a4:	00072783          	lw	a5,0(a4) # c0000000 <main+0xbffffff0>
 1a8:	0017f793          	andi	a5,a5,1
 1ac:	fe079ce3          	bnez	a5,1a4 <main+0x194>
            *Tx = bufferByte;
 1b0:	00412783          	lw	a5,4(sp)
 1b4:	00f72223          	sw	a5,4(a4)
            *AD_DISPLAY1 |= bufferByte;
 1b8:	00412783          	lw	a5,4(sp)
 1bc:	00462583          	lw	a1,4(a2) # 80000004 <main+0x7ffffff4>
 1c0:	00b7e7b3          	or	a5,a5,a1
 1c4:	00f62223          	sw	a5,4(a2)
        for(int i = 3; i>=0; i--){
 1c8:	ff868693          	addi	a3,a3,-8
 1cc:	fca694e3          	bne	a3,a0,194 <main+0x184>
 1d0:	fadff06f          	j	17c <main+0x16c>
    }
    // Tx = (uint32_t *)1;
    // while(Tx==(uint32_t *)1){
    //     Tx = Tx + (*UART_Status);
    // }
    while(1);
 1d4:	0000006f          	j	1d4 <main+0x1c4>
